Certificate:
    Data:
        Version: 3 (0x2)
        Serial Number: 137 (0x89)
        Signature Algorithm: sha1WithRSAEncryption
        Issuer: C=RU, ST=Moscow, L=Moscow, O=NSC, OU=IT, CN=Demo NSC Root CA/emailAddress=d.knjazev@ruru.ru
        Validity
            Not Before: Oct 13 10:35:43 2014 GMT
            Not After : Jul  9 10:35:43 2017 GMT
        Subject: CN=*.dev4.blgrd.net
        Subject Public Key Info:
            Public Key Algorithm: rsaEncryption
                Public-Key: (4096 bit)
                Modulus:
                    00:ae:94:d9:ab:71:5a:91:c0:42:79:e8:6f:e4:22:
                    41:a0:4c:1a:5c:61:61:22:22:87:4c:ed:f3:be:ec:
                    5d:e2:0c:7e:ae:bf:70:e2:93:ba:50:e6:6b:9d:c6:
                    32:69:53:bc:16:c5:37:39:29:60:04:fd:ff:11:2a:
                    70:87:0c:6b:d4:99:d8:f0:f7:ad:f2:36:22:72:6b:
                    9c:68:7d:5e:69:eb:6e:a2:47:6d:80:d6:b1:52:65:
                    fc:e9:78:42:36:42:cf:c5:87:a8:1c:32:e3:88:7f:
                    fb:77:33:45:46:1b:b2:2f:83:9b:6b:6a:fe:66:76:
                    92:2a:ab:fa:67:e6:0d:ea:de:f4:33:d7:0a:78:fe:
                    ca:92:02:86:c6:4a:32:8c:b7:60:23:20:29:1b:fb:
                    3c:f9:a6:f9:28:0f:bd:e0:ba:33:68:06:69:f8:a4:
                    11:ba:35:5e:2f:b5:5c:20:ce:db:eb:b0:9d:da:94:
                    16:34:b4:da:e5:39:ce:50:73:74:85:98:c5:e0:a4:
                    55:2c:3d:a8:ed:7b:a2:66:f0:e9:12:47:1b:93:f1:
                    86:4b:fa:f3:d9:71:0e:b0:4c:aa:f2:d5:d3:3b:9a:
                    f3:e8:11:c5:6d:60:00:18:98:06:5e:88:89:83:81:
                    8e:ff:b3:37:39:c3:58:4d:a7:37:8a:5b:16:54:a7:
                    6c:1e:06:a8:1f:75:d8:9d:46:ed:2b:32:7b:ed:32:
                    6e:20:99:99:40:93:a0:9d:d0:86:18:8b:bc:af:1b:
                    2f:ab:95:45:ae:23:f9:81:b5:2b:d7:79:8f:95:ed:
                    4e:cf:7a:92:42:0d:b8:83:5e:3c:df:ab:9c:f0:00:
                    e5:99:0c:6d:74:f0:5c:53:02:5c:6a:5f:fd:a6:f6:
                    df:6d:3e:7e:51:93:dc:8b:a2:a7:2e:22:fd:c3:2d:
                    e9:77:42:1c:c6:30:86:30:e6:e6:e1:74:a3:9b:6d:
                    6c:6b:6f:c1:57:f3:e0:d0:40:19:74:13:7d:30:ba:
                    0e:52:e8:b6:09:ea:f6:d2:6c:d7:17:3f:03:af:0b:
                    ff:c5:71:de:0e:fc:89:53:4b:98:3a:b6:b5:90:9e:
                    8a:77:cd:44:e9:db:6e:ab:54:63:14:01:45:59:28:
                    58:ab:73:45:12:dd:b1:23:4b:d1:bd:7f:1f:99:cd:
                    46:e2:7b:24:fa:b9:01:b6:af:05:94:5c:ff:9d:4b:
                    1a:30:87:38:ed:24:4c:f7:d2:94:8a:0b:e6:a0:fa:
                    6b:e2:e8:f4:84:67:6b:d1:4f:36:36:33:56:11:d5:
                    e9:6f:60:20:00:aa:58:72:d0:63:dd:c2:0f:fa:df:
                    03:68:47:71:79:9f:d2:32:a0:67:fa:64:3d:8a:04:
                    16:28:85
                Exponent: 65537 (0x10001)
        X509v3 extensions:
            X509v3 Basic Constraints: 
                CA:FALSE
            Netscape Comment: 
                OpenSSL Generated Certificate
            X509v3 Subject Key Identifier: 
                34:F2:0A:47:A7:5E:40:CC:98:BD:90:C9:17:07:39:F4:95:3B:FB:9B
            X509v3 Authority Key Identifier: 
                keyid:89:C3:A5:32:48:BA:E5:1A:A1:C4:F6:14:7D:86:F1:E0:3C:A3:3C:45

    Signature Algorithm: sha1WithRSAEncryption
        3a:47:d6:e8:6f:4b:94:1a:ac:15:6e:28:e1:19:65:23:4a:59:
        9d:07:ec:e7:77:ed:59:9e:0c:b3:a7:4a:64:15:7f:6e:d3:d3:
        3b:dc:98:02:df:f4:30:96:b0:b1:31:96:bb:f2:bf:ef:95:d4:
        51:b3:0c:99:b0:7b:17:3e:6c:1b:da:53:ed:39:c6:43:0c:d1:
        ad:e0:25:89:26:af:b2:76:68:a7:8b:f9:f8:a1:e2:c9:d9:85:
        4b:52:b7:10:12:14:57:d4:0b:14:d0:85:da:44:46:e5:81:fb:
        7b:f8:c2:64:74:63:12:f6:cb:aa:30:da:16:00:ac:64:e2:87:
        2a:3e:7f:ab:1a:9d:41:63:c3:83:ec:4f:4f:8c:fb:2d:a5:4b:
        51:4b:d6:1e:82:0b:b5:01:3e:29:48:84:34:5e:f6:6b:8f:73:
        05:39:06:03:f7:65:2f:41:8a:32:8a:71:d2:35:1d:08:9e:09:
        33:3f:61:35:79:0b:35:5b:1e:1f:90:a0:0b:91:3c:ee:1d:6f:
        67:f7:a2:8c:ff:36:8a:f9:48:f0:fb:d2:16:c8:e5:48:c6:5e:
        da:33:87:a3:41:70:6e:42:79:f6:8c:97:40:c4:1e:f5:ff:c7:
        97:74:bf:d4:d7:55:58:f8:5e:32:06:ba:02:6f:09:31:25:3d:
        e2:38:78:f3
-----BEGIN CERTIFICATE-----
MIIEmjCCA4KgAwIBAgICAIkwDQYJKoZIhvcNAQEFBQAwgYcxCzAJBgNVBAYTAlJV
MQ8wDQYDVQQIDAZNb3Njb3cxDzANBgNVBAcMBk1vc2NvdzEMMAoGA1UECgwDTlND
MQswCQYDVQQLDAJJVDEZMBcGA1UEAwwQRGVtbyBOU0MgUm9vdCBDQTEgMB4GCSqG
SIb3DQEJARYRZC5rbmphemV2QHJ1cnUucnUwHhcNMTQxMDEzMTAzNTQzWhcNMTcw
NzA5MTAzNTQzWjAbMRkwFwYDVQQDDBAqLmRldjQuYmxncmQubmV0MIICIjANBgkq
hkiG9w0BAQEFAAOCAg8AMIICCgKCAgEArpTZq3FakcBCeehv5CJBoEwaXGFhIiKH
TO3zvuxd4gx+rr9w4pO6UOZrncYyaVO8FsU3OSlgBP3/ESpwhwxr1JnY8Pet8jYi
cmucaH1eaetuokdtgNaxUmX86XhCNkLPxYeoHDLjiH/7dzNFRhuyL4Oba2r+ZnaS
Kqv6Z+YN6t70M9cKeP7KkgKGxkoyjLdgIyApG/s8+ab5KA+94LozaAZp+KQRujVe
L7VcIM7b67Cd2pQWNLTa5TnOUHN0hZjF4KRVLD2o7XuiZvDpEkcbk/GGS/rz2XEO
sEyq8tXTO5rz6BHFbWAAGJgGXoiJg4GO/7M3OcNYTac3ilsWVKdsHgaoH3XYnUbt
KzJ77TJuIJmZQJOgndCGGIu8rxsvq5VFriP5gbUr13mPle1Oz3qSQg24g14836uc
8ADlmQxtdPBcUwJcal/9pvbfbT5+UZPci6KnLiL9wy3pd0IcxjCGMObm4XSjm21s
a2/BV/Pg0EAZdBN9MLoOUui2Cer20mzXFz8Drwv/xXHeDvyJU0uYOra1kJ6Kd81E
6dtuq1RjFAFFWShYq3NFEt2xI0vRvX8fmc1G4nsk+rkBtq8FlFz/nUsaMIc47SRM
99KUigvmoPpr4uj0hGdr0U82NjNWEdXpb2AgAKpYctBj3cIP+t8DaEdxeZ/SMqBn
+mQ9igQWKIUCAwEAAaN7MHkwCQYDVR0TBAIwADAsBglghkgBhvhCAQ0EHxYdT3Bl
blNTTCBHZW5lcmF0ZWQgQ2VydGlmaWNhdGUwHQYDVR0OBBYEFDTyCkenXkDMmL2Q
yRcHOfSVO/ubMB8GA1UdIwQYMBaAFInDpTJIuuUaocT2FH2G8eA8ozxFMA0GCSqG
SIb3DQEBBQUAA4IBAQA6R9bob0uUGqwVbijhGWUjSlmdB+znd+1Zngyzp0pkFX9u
09M73JgC3/QwlrCxMZa78r/vldRRswyZsHsXPmwb2lPtOcZDDNGt4CWJJq+ydmin
i/n4oeLJ2YVLUrcQEhRX1AsU0IXaREblgft7+MJkdGMS9suqMNoWAKxk4ocqPn+r
Gp1BY8OD7E9PjPstpUtRS9Yeggu1AT4pSIQ0XvZrj3MFOQYD92UvQYoyinHSNR0I
ngkzP2E1eQs1Wx4fkKALkTzuHW9n96KM/zaK+Ujw+9IWyOVIxl7aM4ejQXBuQnn2
jJdAxB71/8eXdL/U11VY+F4yBroCbwkxJT3iOHjz
-----END CERTIFICATE-----
